; Function Attrs: mustprogress uwtable
define void @_ZN8QuantLib11AbcdSquaredC2Edddddd(ptr noundef nonnull align 8 dereferenceable(32) %this, double noundef %a, double noundef %b, double noundef %c, double noundef %d, double noundef %T, double noundef %S) unnamed_addr #0 align 2 personality ptr @__gxx_personality_v0 {
entry:
  %call = tail call noalias noundef nonnull dereferenceable(136) ptr @_Znwm(i64 noundef 136) #23
  invoke void @_ZN8QuantLib12AbcdFunctionC1Edddd(ptr noundef nonnull align 8 dereferenceable(136) %call, double noundef %a, double noundef %b, double noundef %c, double noundef %d)
          to label %invoke.cont unwind label %lpad

invoke.cont:                                      ; preds = %entry
  store ptr %call, ptr %this, align 8, !tbaa !30
  %pn.i = getelementptr inbounds nuw i8, ptr %this, i64 8
  store ptr null, ptr %pn.i, align 8, !tbaa !28
  invoke void @_ZN5boost6detail20sp_pointer_constructIN8QuantLib12AbcdFunctionES3_EEvPNS_10shared_ptrIT_EEPT0_RNS0_12shared_countE(ptr noundef nonnull %this, ptr noundef nonnull %call, ptr noundef nonnull align 8 dereferenceable(8) %pn.i)
          to label %_ZN5boost10shared_ptrIN8QuantLib12AbcdFunctionEEC2IS2_EEPT_.exit unwind label %lpad.i

common.resume:                                    ; preds = %lpad, %lpad.i
  %common.resume.op = phi { ptr, i32 } [ %0, %lpad.i ], [ %1, %lpad ]
  resume { ptr, i32 } %common.resume.op

lpad.i:                                           ; preds = %invoke.cont
  %0 = landingpad { ptr, i32 }
          cleanup
  tail call void @_ZN5boost6detail12shared_countD2Ev(ptr noundef nonnull align 8 dereferenceable(8) %pn.i) #19
  br label %common.resume

_ZN5boost10shared_ptrIN8QuantLib12AbcdFunctionEEC2IS2_EEPT_.exit: ; preds = %invoke.cont
  %T_ = getelementptr inbounds nuw i8, ptr %this, i64 16
  store double %T, ptr %T_, align 8, !tbaa !32
  %S_ = getelementptr inbounds nuw i8, ptr %this, i64 24
  store double %S, ptr %S_, align 8, !tbaa !34
  ret void

lpad:                                             ; preds = %entry
  %1 = landingpad { ptr, i32 }
          cleanup
  tail call void @_ZdlPvm(ptr noundef nonnull %call, i64 noundef 136) #21
  br label %common.resume
}